target datalayout = "e-m:e-p270:32:32-p271:32:32-p272:64:64-i64:64-i128:128-f80:128-n8:16:32:64-S128"
target triple = "x86_64-pc-linux-gnu"

%struct.segment = type { i8, double, %struct.paird, i32, i32, i64, i32, ptr, ptr }
%struct.paird = type { double, double }

@.str.12 = private unnamed_addr constant [24 x i8] c"((%f,%f),(%f,%f)) %s %s\00", align 1
@.str.13 = private unnamed_addr constant [7 x i8] c"B_NODE\00", align 1
@.str.14 = private unnamed_addr constant [5 x i8] c"B_UP\00", align 1
@.str.15 = private unnamed_addr constant [7 x i8] c"B_LEFT\00", align 1
@.str.16 = private unnamed_addr constant [7 x i8] c"B_DOWN\00", align 1
@.str.17 = private unnamed_addr constant [8 x i8] c"B_RIGHT\00", align 1

; Function Attrs: nounwind uwtable
define internal ptr @bendToStr(i32 noundef %0) #0 {
  %2 = alloca i32, align 4
  %3 = alloca ptr, align 8
  store i32 %0, ptr %2, align 4, !tbaa !17
  call void @llvm.lifetime.start.p0(i64 8, ptr %3) #12
  store ptr null, ptr %3, align 8, !tbaa !15
  %4 = load i32, ptr %2, align 4, !tbaa !17
  switch i32 %4, label %9 [
    i32 0, label %5
    i32 1, label %6
    i32 2, label %7
    i32 3, label %8
  ]

5:                                                ; preds = %1
  store ptr @.str.13, ptr %3, align 8, !tbaa !15
  br label %10

6:                                                ; preds = %1
  store ptr @.str.14, ptr %3, align 8, !tbaa !15
  br label %10

7:                                                ; preds = %1
  store ptr @.str.15, ptr %3, align 8, !tbaa !15
  br label %10

8:                                                ; preds = %1
  store ptr @.str.16, ptr %3, align 8, !tbaa !15
  br label %10

9:                                                ; preds = %1
  store ptr @.str.17, ptr %3, align 8, !tbaa !15
  br label %10

10:                                               ; preds = %9, %8, %7, %6, %5
  %11 = load ptr, ptr %3, align 8, !tbaa !15
  call void @llvm.lifetime.end.p0(i64 8, ptr %3) #12
  ret ptr %11
}

; Function Attrs: nounwind uwtable
define internal void @putSeg(ptr noundef %0, ptr noundef %1) #0 {
  %3 = alloca ptr, align 8
  %4 = alloca ptr, align 8
  store ptr %0, ptr %3, align 8, !tbaa !25
  store ptr %1, ptr %4, align 8, !tbaa !76
  %5 = load ptr, ptr %4, align 8, !tbaa !76
  %6 = getelementptr inbounds nuw %struct.segment, ptr %5, i32 0, i32 0
  %7 = load i8, ptr %6, align 8, !tbaa !136, !range !13, !noundef !14
  %8 = trunc i8 %7 to i1
  br i1 %8, label %9, label %34

9:                                                ; preds = %2
  %10 = load ptr, ptr %3, align 8, !tbaa !25
  %11 = load ptr, ptr %4, align 8, !tbaa !76
  %12 = getelementptr inbounds nuw %struct.segment, ptr %11, i32 0, i32 1
  %13 = load double, ptr %12, align 8, !tbaa !152
  %14 = load ptr, ptr %4, align 8, !tbaa !76
  %15 = getelementptr inbounds nuw %struct.segment, ptr %14, i32 0, i32 2
  %16 = getelementptr inbounds nuw %struct.paird, ptr %15, i32 0, i32 0
  %17 = load double, ptr %16, align 8, !tbaa !153
  %18 = load ptr, ptr %4, align 8, !tbaa !76
  %19 = getelementptr inbounds nuw %struct.segment, ptr %18, i32 0, i32 1
  %20 = load double, ptr %19, align 8, !tbaa !152
  %21 = load ptr, ptr %4, align 8, !tbaa !76
  %22 = getelementptr inbounds nuw %struct.segment, ptr %21, i32 0, i32 2
  %23 = getelementptr inbounds nuw %struct.paird, ptr %22, i32 0, i32 1
  %24 = load double, ptr %23, align 8, !tbaa !154
  %25 = load ptr, ptr %4, align 8, !tbaa !76
  %26 = getelementptr inbounds nuw %struct.segment, ptr %25, i32 0, i32 3
  %27 = load i32, ptr %26, align 8, !tbaa !155
  %28 = call ptr @bendToStr(i32 noundef %27)
  %29 = load ptr, ptr %4, align 8, !tbaa !76
  %30 = getelementptr inbounds nuw %struct.segment, ptr %29, i32 0, i32 4
  %31 = load i32, ptr %30, align 4, !tbaa !156
  %32 = call ptr @bendToStr(i32 noundef %31)
  %33 = call i32 (ptr, ptr, ...) @fprintf(ptr noundef %10, ptr noundef @.str.12, double noundef %13, double noundef %17, double noundef %20, double noundef %24, ptr noundef %28, ptr noundef %32) #12
  br label %59

34:                                               ; preds = %2
  %35 = load ptr, ptr %3, align 8, !tbaa !25
  %36 = load ptr, ptr %4, align 8, !tbaa !76
  %37 = getelementptr inbounds nuw %struct.segment, ptr %36, i32 0, i32 2
  %38 = getelementptr inbounds nuw %struct.paird, ptr %37, i32 0, i32 0
  %39 = load double, ptr %38, align 8, !tbaa !153
  %40 = load ptr, ptr %4, align 8, !tbaa !76
  %41 = getelementptr inbounds nuw %struct.segment, ptr %40, i32 0, i32 1
  %42 = load double, ptr %41, align 8, !tbaa !152
  %43 = load ptr, ptr %4, align 8, !tbaa !76
  %44 = getelementptr inbounds nuw %struct.segment, ptr %43, i32 0, i32 2
  %45 = getelementptr inbounds nuw %struct.paird, ptr %44, i32 0, i32 1
  %46 = load double, ptr %45, align 8, !tbaa !154
  %47 = load ptr, ptr %4, align 8, !tbaa !76
  %48 = getelementptr inbounds nuw %struct.segment, ptr %47, i32 0, i32 1
  %49 = load double, ptr %48, align 8, !tbaa !152
  %50 = load ptr, ptr %4, align 8, !tbaa !76
  %51 = getelementptr inbounds nuw %struct.segment, ptr %50, i32 0, i32 3
  %52 = load i32, ptr %51, align 8, !tbaa !155
  %53 = call ptr @bendToStr(i32 noundef %52)
  %54 = load ptr, ptr %4, align 8, !tbaa !76
  %55 = getelementptr inbounds nuw %struct.segment, ptr %54, i32 0, i32 4
  %56 = load i32, ptr %55, align 4, !tbaa !156
  %57 = call ptr @bendToStr(i32 noundef %56)
  %58 = call i32 (ptr, ptr, ...) @fprintf(ptr noundef %35, ptr noundef @.str.12, double noundef %39, double noundef %42, double noundef %46, double noundef %49, ptr noundef %53, ptr noundef %57) #12
  br label %59

59:                                               ; preds = %34, %9
  ret void
}