; Function Attrs: nofree nounwind uwtable
define internal fastcc void @putSeg(ptr noundef captures(none) %0, ptr noundef readonly captures(none) %1) unnamed_addr #14 {
  %3 = load i8, ptr %1, align 8, !tbaa !110, !range !10, !noundef !11
  %4 = trunc nuw i8 %3 to i1
  %5 = getelementptr inbounds nuw i8, ptr %1, i64 24
  %6 = load double, ptr %5, align 8, !tbaa !162
  %7 = getelementptr inbounds nuw i8, ptr %1, i64 32
  %8 = load i32, ptr %7, align 8, !tbaa !163
  %9 = icmp ult i32 %8, 4
  br i1 %4, label %10, label %21

10:                                               ; preds = %2
  %11 = getelementptr inbounds nuw i8, ptr %1, i64 8
  %12 = load double, ptr %11, align 8, !tbaa !156
  %13 = getelementptr inbounds nuw i8, ptr %1, i64 16
  %14 = load double, ptr %13, align 8, !tbaa !161
  br i1 %9, label %switch.lookup, label %bendToStr.exit

switch.lookup:                                    ; preds = %10
  %15 = zext nneg i32 %8 to i64
  %switch.gep = getelementptr inbounds nuw [4 x ptr], ptr @switch.table.putSeg.11, i64 0, i64 %15
  %switch.load = load ptr, ptr %switch.gep, align 8
  br label %bendToStr.exit

bendToStr.exit:                                   ; preds = %10, %switch.lookup
  %.0.i = phi ptr [ %switch.load, %switch.lookup ], [ @.str.17, %10 ]
  %16 = getelementptr inbounds nuw i8, ptr %1, i64 36
  %17 = load i32, ptr %16, align 4, !tbaa !164
  %18 = icmp ult i32 %17, 4
  br i1 %18, label %switch.lookup21, label %bendToStr.exit16

switch.lookup21:                                  ; preds = %bendToStr.exit
  %19 = zext nneg i32 %17 to i64
  %switch.gep22 = getelementptr inbounds nuw [4 x ptr], ptr @switch.table.putSeg.11, i64 0, i64 %19
  %switch.load23 = load ptr, ptr %switch.gep22, align 8
  br label %bendToStr.exit16

bendToStr.exit16:                                 ; preds = %bendToStr.exit, %switch.lookup21
  %.0.i15 = phi ptr [ %switch.load23, %switch.lookup21 ], [ @.str.17, %bendToStr.exit ]
  %20 = tail call i32 (ptr, ptr, ...) @fprintf(ptr noundef %0, ptr noundef nonnull @.str.12, double noundef %12, double noundef %14, double noundef %12, double noundef %6, ptr noundef nonnull %.0.i, ptr noundef nonnull %.0.i15) #18
  br label %32

21:                                               ; preds = %2
  %22 = getelementptr inbounds nuw i8, ptr %1, i64 16
  %23 = load double, ptr %22, align 8, !tbaa !161
  %24 = getelementptr inbounds nuw i8, ptr %1, i64 8
  %25 = load double, ptr %24, align 8, !tbaa !156
  br i1 %9, label %switch.lookup24, label %bendToStr.exit18

switch.lookup24:                                  ; preds = %21
  %26 = zext nneg i32 %8 to i64
  %switch.gep25 = getelementptr inbounds nuw [4 x ptr], ptr @switch.table.putSeg.11, i64 0, i64 %26
  %switch.load26 = load ptr, ptr %switch.gep25, align 8
  br label %bendToStr.exit18

bendToStr.exit18:                                 ; preds = %21, %switch.lookup24
  %.0.i17 = phi ptr [ %switch.load26, %switch.lookup24 ], [ @.str.17, %21 ]
  %27 = getelementptr inbounds nuw i8, ptr %1, i64 36
  %28 = load i32, ptr %27, align 4, !tbaa !164
  %29 = icmp ult i32 %28, 4
  br i1 %29, label %switch.lookup27, label %bendToStr.exit20

switch.lookup27:                                  ; preds = %bendToStr.exit18
  %30 = zext nneg i32 %28 to i64
  %switch.gep28 = getelementptr inbounds nuw [4 x ptr], ptr @switch.table.putSeg.11, i64 0, i64 %30
  %switch.load29 = load ptr, ptr %switch.gep28, align 8
  br label %bendToStr.exit20

bendToStr.exit20:                                 ; preds = %bendToStr.exit18, %switch.lookup27
  %.0.i19 = phi ptr [ %switch.load29, %switch.lookup27 ], [ @.str.17, %bendToStr.exit18 ]
  %31 = tail call i32 (ptr, ptr, ...) @fprintf(ptr noundef %0, ptr noundef nonnull @.str.12, double noundef %23, double noundef %25, double noundef %6, double noundef %25, ptr noundef nonnull %.0.i17, ptr noundef nonnull %.0.i19) #18
  br label %32

32:                                               ; preds = %bendToStr.exit20, %bendToStr.exit16
  ret void
}